target datalayout = "e-m:e-p270:32:32-p271:32:32-p272:64:64-i64:64-i128:128-f80:128-n8:16:32:64-S128"
target triple = "x86_64-pc-linux-gnu"

%struct.daemon_service = type { ptr, ptr, ptr, i32, i32 }

@.str.49 = private unnamed_addr constant [19 x i8] c"No such service %s\00", align 1

; Function Attrs: nounwind uwtable
define internal void @make_service_overridable(ptr noundef %0, i32 noundef %1) #0 {
  %3 = alloca ptr, align 8
  %4 = alloca i32, align 4
  %5 = alloca i64, align 8
  %6 = alloca i32, align 4
  store ptr %0, ptr %3, align 8, !tbaa !11
  store i32 %1, ptr %4, align 4, !tbaa !4
  call void @llvm.lifetime.start.p0(i64 8, ptr %5) #13
  store i64 0, ptr %5, align 8, !tbaa !15
  br label %7

7:                                                ; preds = %25, %2
  %8 = load i64, ptr %5, align 8, !tbaa !15
  %9 = icmp ult i64 %8, 3
  br i1 %9, label %11, label %10

10:                                               ; preds = %7
  store i32 2, ptr %6, align 4
  br label %28

11:                                               ; preds = %7
  %12 = load i64, ptr %5, align 8, !tbaa !15
  %13 = getelementptr inbounds nuw [3 x %struct.daemon_service], ptr @daemon_service, i64 0, i64 %12
  %14 = getelementptr inbounds nuw %struct.daemon_service, ptr %13, i32 0, i32 0
  %15 = load ptr, ptr %14, align 16, !tbaa !29
  %16 = load ptr, ptr %3, align 8, !tbaa !11
  %17 = call i32 @strcmp(ptr noundef %15, ptr noundef %16) #14
  %18 = icmp ne i32 %17, 0
  br i1 %18, label %24, label %19

19:                                               ; preds = %11
  %20 = load i32, ptr %4, align 4, !tbaa !4
  %21 = load i64, ptr %5, align 8, !tbaa !15
  %22 = getelementptr inbounds nuw [3 x %struct.daemon_service], ptr @daemon_service, i64 0, i64 %21
  %23 = getelementptr inbounds nuw %struct.daemon_service, ptr %22, i32 0, i32 4
  store i32 %20, ptr %23, align 4, !tbaa !33
  store i32 1, ptr %6, align 4
  br label %28

24:                                               ; preds = %11
  br label %25

25:                                               ; preds = %24
  %26 = load i64, ptr %5, align 8, !tbaa !15
  %27 = add i64 %26, 1
  store i64 %27, ptr %5, align 8, !tbaa !15
  br label %7, !llvm.loop !34

28:                                               ; preds = %19, %10
  call void @llvm.lifetime.end.p0(i64 8, ptr %5) #13
  %29 = load i32, ptr %6, align 4
  switch i32 %29, label %33 [
    i32 2, label %30
    i32 1, label %32
  ]

30:                                               ; preds = %28
  %31 = load ptr, ptr %3, align 8, !tbaa !11
  call void (ptr, ...) @die(ptr noundef @.str.49, ptr noundef %31) #15
  unreachable

32:                                               ; preds = %28
  ret void

33:                                               ; preds = %28
  unreachable
}