; Function Attrs: nounwind uwtable
define internal fastcc void @make_service_overridable(ptr noundef %0, i32 noundef range(i32 0, 2) %1) unnamed_addr #0 {
  br label %5

3:                                                ; preds = %5
  %4 = add nuw nsw i64 %.0711, 1
  %exitcond.not = icmp eq i64 %4, 3
  br i1 %exitcond.not, label %9, label %5, !llvm.loop !89

5:                                                ; preds = %2, %3
  %.0711 = phi i64 [ 0, %2 ], [ %4, %3 ]
  %6 = getelementptr inbounds nuw [3 x %struct.daemon_service], ptr @daemon_service, i64 0, i64 %.0711
  %7 = load ptr, ptr %6, align 16, !tbaa !29
  %8 = tail call i32 @strcmp(ptr noundef nonnull dereferenceable(1) %7, ptr noundef nonnull dereferenceable(1) %0) #22
  %.not = icmp eq i32 %8, 0
  br i1 %.not, label %10, label %3

9:                                                ; preds = %3
  tail call void (ptr, ...) @die(ptr noundef nonnull @.str.49, ptr noundef nonnull %0) #23
  unreachable

10:                                               ; preds = %5
  %11 = getelementptr inbounds nuw i8, ptr %6, i64 28
  store i32 %1, ptr %11, align 4, !tbaa !32
  ret void
}